target datalayout = "e-m:e-p270:32:32-p271:32:32-p272:64:64-i64:64-i128:128-f80:128-n8:16:32:64-S128"
target triple = "x86_64-pc-linux-gnu"

; Function Attrs: mustprogress nounwind uwtable
define linkonce_odr noundef nonnull align 4 dereferenceable(4) ptr @_ZSt3minIiERKT_S2_S2_(ptr noundef nonnull align 4 dereferenceable(4) %0, ptr noundef nonnull align 4 dereferenceable(4) %1) #2 comdat {
  %3 = alloca ptr, align 8
  %4 = alloca ptr, align 8
  %5 = alloca ptr, align 8
  store ptr %0, ptr %4, align 8
  store ptr %1, ptr %5, align 8
  %6 = load ptr, ptr %5, align 8
  %7 = load i32, ptr %6, align 4
  %8 = load ptr, ptr %4, align 8
  %9 = load i32, ptr %8, align 4
  %10 = icmp slt i32 %7, %9
  br i1 %10, label %11, label %13

11:                                               ; preds = %2
  %12 = load ptr, ptr %5, align 8
  store ptr %12, ptr %3, align 8
  br label %15

13:                                               ; preds = %2
  %14 = load ptr, ptr %4, align 8
  store ptr %14, ptr %3, align 8
  br label %15

15:                                               ; preds = %13, %11
  %16 = load ptr, ptr %3, align 8
  ret ptr %16
}

; Function Attrs: mustprogress nounwind uwtable
define linkonce_odr noundef nonnull align 4 dereferenceable(4) ptr @_ZSt3maxIiERKT_S2_S2_(ptr noundef nonnull align 4 dereferenceable(4) %0, ptr noundef nonnull align 4 dereferenceable(4) %1) #2 comdat {
  %3 = alloca ptr, align 8
  %4 = alloca ptr, align 8
  %5 = alloca ptr, align 8
  store ptr %0, ptr %4, align 8
  store ptr %1, ptr %5, align 8
  %6 = load ptr, ptr %4, align 8
  %7 = load i32, ptr %6, align 4
  %8 = load ptr, ptr %5, align 8
  %9 = load i32, ptr %8, align 4
  %10 = icmp slt i32 %7, %9
  br i1 %10, label %11, label %13

11:                                               ; preds = %2
  %12 = load ptr, ptr %5, align 8
  store ptr %12, ptr %3, align 8
  br label %15

13:                                               ; preds = %2
  %14 = load ptr, ptr %4, align 8
  store ptr %14, ptr %3, align 8
  br label %15

15:                                               ; preds = %13, %11
  %16 = load ptr, ptr %3, align 8
  ret ptr %16
}

; Function Attrs: mustprogress nounwind uwtable
define linkonce_odr noundef nofpclass(nan inf) float @_ZSt4sqrtf(float noundef nofpclass(nan inf) %0) #2 comdat {
  %2 = alloca float, align 4
  store float %0, ptr %2, align 4
  %3 = load float, ptr %2, align 4
  %4 = call fast float @llvm.sqrt.f32(float %3)
  ret float %4
}

; Function Attrs: mustprogress uwtable
define internal void @_ZN4ncnnL20get_optimal_tile_mnkEiiiiiiRiS0_S0_i(i32 noundef %0, i32 noundef %1, i32 noundef %2, i32 noundef %3, i32 noundef %4, i32 noundef %5, ptr noundef nonnull align 4 dereferenceable(4) %6, ptr noundef nonnull align 4 dereferenceable(4) %7, ptr noundef nonnull align 4 dereferenceable(4) %8, i32 noundef %9) #0 {
  %11 = alloca i32, align 4
  %12 = alloca i32, align 4
  %13 = alloca i32, align 4
  %14 = alloca i32, align 4
  %15 = alloca i32, align 4
  %16 = alloca i32, align 4
  %17 = alloca ptr, align 8
  %18 = alloca ptr, align 8
  %19 = alloca ptr, align 8
  %20 = alloca i32, align 4
  %21 = alloca i64, align 8
  %22 = alloca i32, align 4
  %23 = alloca i32, align 4
  %24 = alloca i32, align 4
  %25 = alloca i32, align 4
  %26 = alloca i32, align 4
  %27 = alloca i32, align 4
  %28 = alloca i32, align 4
  %29 = alloca i32, align 4
  %30 = alloca i32, align 4
  %31 = alloca i32, align 4
  %32 = alloca i32, align 4
  %33 = alloca i32, align 4
  %34 = alloca i32, align 4
  %35 = alloca i32, align 4
  %36 = alloca i32, align 4
  %37 = alloca i32, align 4
  %38 = alloca i32, align 4
  %39 = alloca i32, align 4
  %40 = alloca i32, align 4
  %41 = alloca i32, align 4
  %42 = alloca i32, align 4
  store i32 %0, ptr %11, align 4
  store i32 %1, ptr %12, align 4
  store i32 %2, ptr %13, align 4
  store i32 %3, ptr %14, align 4
  store i32 %4, ptr %15, align 4
  store i32 %5, ptr %16, align 4
  store ptr %6, ptr %17, align 8
  store ptr %7, ptr %18, align 8
  store ptr %8, ptr %19, align 8
  store i32 %9, ptr %20, align 4
  %43 = call noundef i32 @_ZN4ncnn25get_cpu_level2_cache_sizeEv()
  %44 = sext i32 %43 to i64
  store i64 %44, ptr %21, align 8
  %45 = load i32, ptr %20, align 4
  %46 = icmp eq i32 %45, 0
  br i1 %46, label %47, label %49

47:                                               ; preds = %10
  %48 = call noundef i32 @_ZN4ncnn26get_physical_big_cpu_countEv()
  store i32 %48, ptr %20, align 4
  br label %49

49:                                               ; preds = %47, %10
  %50 = load i64, ptr %21, align 8
  %51 = uitofp i64 %50 to float
  %52 = fdiv fast float %51, 3.000000e+00
  %53 = fdiv fast float %52, 4.000000e+00
  %54 = call fast noundef nofpclass(nan inf) float @_ZSt4sqrtf(float noundef nofpclass(nan inf) %53)
  %55 = fptosi float %54 to i32
  store i32 %55, ptr %22, align 4
  store i32 16, ptr %23, align 4
  %56 = load i32, ptr %22, align 4
  %57 = sdiv i32 %56, 16
  %58 = mul nsw i32 %57, 16
  store i32 %58, ptr %24, align 4
  %59 = call noundef nonnull align 4 dereferenceable(4) ptr @_ZSt3maxIiERKT_S2_S2_(ptr noundef nonnull align 4 dereferenceable(4) %23, ptr noundef nonnull align 4 dereferenceable(4) %24)
  %60 = load i32, ptr %59, align 4
  %61 = load ptr, ptr %17, align 8
  store i32 %60, ptr %61, align 4
  store i32 4, ptr %25, align 4
  %62 = load i32, ptr %22, align 4
  %63 = sdiv i32 %62, 4
  %64 = mul nsw i32 %63, 4
  store i32 %64, ptr %26, align 4
  %65 = call noundef nonnull align 4 dereferenceable(4) ptr @_ZSt3maxIiERKT_S2_S2_(ptr noundef nonnull align 4 dereferenceable(4) %25, ptr noundef nonnull align 4 dereferenceable(4) %26)
  %66 = load i32, ptr %65, align 4
  %67 = load ptr, ptr %18, align 8
  store i32 %66, ptr %67, align 4
  store i32 16, ptr %27, align 4
  %68 = load i32, ptr %22, align 4
  %69 = sdiv i32 %68, 16
  %70 = mul nsw i32 %69, 16
  store i32 %70, ptr %28, align 4
  %71 = call noundef nonnull align 4 dereferenceable(4) ptr @_ZSt3maxIiERKT_S2_S2_(ptr noundef nonnull align 4 dereferenceable(4) %27, ptr noundef nonnull align 4 dereferenceable(4) %28)
  %72 = load i32, ptr %71, align 4
  %73 = load ptr, ptr %19, align 8
  store i32 %72, ptr %73, align 4
  %74 = load i32, ptr %13, align 4
  %75 = icmp sgt i32 %74, 0
  br i1 %75, label %76, label %123

76:                                               ; preds = %49
  %77 = load i32, ptr %13, align 4
  %78 = load ptr, ptr %19, align 8
  %79 = load i32, ptr %78, align 4
  %80 = add nsw i32 %77, %79
  %81 = sub nsw i32 %80, 1
  %82 = load ptr, ptr %19, align 8
  %83 = load i32, ptr %82, align 4
  %84 = sdiv i32 %81, %83
  store i32 %84, ptr %29, align 4
  %85 = load ptr, ptr %19, align 8
  %86 = load i32, ptr %13, align 4
  %87 = load i32, ptr %29, align 4
  %88 = add nsw i32 %86, %87
  %89 = sub nsw i32 %88, 1
  %90 = load i32, ptr %29, align 4
  %91 = sdiv i32 %89, %90
  %92 = add nsw i32 %91, 15
  %93 = sdiv i32 %92, 16
  %94 = mul nsw i32 %93, 16
  store i32 %94, ptr %30, align 4
  %95 = call noundef nonnull align 4 dereferenceable(4) ptr @_ZSt3minIiERKT_S2_S2_(ptr noundef nonnull align 4 dereferenceable(4) %85, ptr noundef nonnull align 4 dereferenceable(4) %30)
  %96 = load i32, ptr %95, align 4
  %97 = load ptr, ptr %19, align 8
  store i32 %96, ptr %97, align 4
  %98 = load i32, ptr %29, align 4
  %99 = icmp eq i32 %98, 1
  br i1 %99, label %100, label %122

100:                                              ; preds = %76
  %101 = load i64, ptr %21, align 8
  %102 = uitofp i64 %101 to float
  %103 = fdiv fast float %102, 2.000000e+00
  %104 = fdiv fast float %103, 4.000000e+00
  %105 = load ptr, ptr %19, align 8
  %106 = load i32, ptr %105, align 4
  %107 = sitofp i32 %106 to float
  %108 = fdiv fast float %104, %107
  %109 = fptosi float %108 to i32
  store i32 %109, ptr %22, align 4
  store i32 16, ptr %31, align 4
  %110 = load i32, ptr %22, align 4
  %111 = sdiv i32 %110, 16
  %112 = mul nsw i32 %111, 16
  store i32 %112, ptr %32, align 4
  %113 = call noundef nonnull align 4 dereferenceable(4) ptr @_ZSt3maxIiERKT_S2_S2_(ptr noundef nonnull align 4 dereferenceable(4) %31, ptr noundef nonnull align 4 dereferenceable(4) %32)
  %114 = load i32, ptr %113, align 4
  %115 = load ptr, ptr %17, align 8
  store i32 %114, ptr %115, align 4
  store i32 4, ptr %33, align 4
  %116 = load i32, ptr %22, align 4
  %117 = sdiv i32 %116, 4
  %118 = mul nsw i32 %117, 4
  store i32 %118, ptr %34, align 4
  %119 = call noundef nonnull align 4 dereferenceable(4) ptr @_ZSt3maxIiERKT_S2_S2_(ptr noundef nonnull align 4 dereferenceable(4) %33, ptr noundef nonnull align 4 dereferenceable(4) %34)
  %120 = load i32, ptr %119, align 4
  %121 = load ptr, ptr %18, align 8
  store i32 %120, ptr %121, align 4
  br label %122

122:                                              ; preds = %100, %76
  br label %123

123:                                              ; preds = %122, %49
  %124 = call noundef i32 @_ZN4ncnn22get_physical_cpu_countEv()
  store i32 %124, ptr %35, align 4
  %125 = call noundef nonnull align 4 dereferenceable(4) ptr @_ZSt3minIiERKT_S2_S2_(ptr noundef nonnull align 4 dereferenceable(4) %20, ptr noundef nonnull align 4 dereferenceable(4) %35)
  %126 = load i32, ptr %125, align 4
  %127 = load ptr, ptr %17, align 8
  %128 = load i32, ptr %127, align 4
  %129 = mul nsw i32 %128, %126
  store i32 %129, ptr %127, align 4
  %130 = load i32, ptr %11, align 4
  %131 = icmp sgt i32 %130, 0
  br i1 %131, label %132, label %154

132:                                              ; preds = %123
  %133 = load i32, ptr %11, align 4
  %134 = load ptr, ptr %17, align 8
  %135 = load i32, ptr %134, align 4
  %136 = add nsw i32 %133, %135
  %137 = sub nsw i32 %136, 1
  %138 = load ptr, ptr %17, align 8
  %139 = load i32, ptr %138, align 4
  %140 = sdiv i32 %137, %139
  store i32 %140, ptr %36, align 4
  %141 = load ptr, ptr %17, align 8
  %142 = load i32, ptr %11, align 4
  %143 = load i32, ptr %36, align 4
  %144 = add nsw i32 %142, %143
  %145 = sub nsw i32 %144, 1
  %146 = load i32, ptr %36, align 4
  %147 = sdiv i32 %145, %146
  %148 = add nsw i32 %147, 15
  %149 = sdiv i32 %148, 16
  %150 = mul nsw i32 %149, 16
  store i32 %150, ptr %37, align 4
  %151 = call noundef nonnull align 4 dereferenceable(4) ptr @_ZSt3minIiERKT_S2_S2_(ptr noundef nonnull align 4 dereferenceable(4) %141, ptr noundef nonnull align 4 dereferenceable(4) %37)
  %152 = load i32, ptr %151, align 4
  %153 = load ptr, ptr %17, align 8
  store i32 %152, ptr %153, align 4
  br label %154

154:                                              ; preds = %132, %123
  %155 = load i32, ptr %12, align 4
  %156 = icmp sgt i32 %155, 0
  br i1 %156, label %157, label %179

157:                                              ; preds = %154
  %158 = load i32, ptr %12, align 4
  %159 = load ptr, ptr %18, align 8
  %160 = load i32, ptr %159, align 4
  %161 = add nsw i32 %158, %160
  %162 = sub nsw i32 %161, 1
  %163 = load ptr, ptr %18, align 8
  %164 = load i32, ptr %163, align 4
  %165 = sdiv i32 %162, %164
  store i32 %165, ptr %38, align 4
  %166 = load ptr, ptr %18, align 8
  %167 = load i32, ptr %12, align 4
  %168 = load i32, ptr %38, align 4
  %169 = add nsw i32 %167, %168
  %170 = sub nsw i32 %169, 1
  %171 = load i32, ptr %38, align 4
  %172 = sdiv i32 %170, %171
  %173 = add nsw i32 %172, 3
  %174 = sdiv i32 %173, 4
  %175 = mul nsw i32 %174, 4
  store i32 %175, ptr %39, align 4
  %176 = call noundef nonnull align 4 dereferenceable(4) ptr @_ZSt3minIiERKT_S2_S2_(ptr noundef nonnull align 4 dereferenceable(4) %166, ptr noundef nonnull align 4 dereferenceable(4) %39)
  %177 = load i32, ptr %176, align 4
  %178 = load ptr, ptr %18, align 8
  store i32 %177, ptr %178, align 4
  br label %179

179:                                              ; preds = %157, %154
  %180 = load i32, ptr %20, align 4
  %181 = icmp sgt i32 %180, 1
  br i1 %181, label %182, label %196

182:                                              ; preds = %179
  %183 = load ptr, ptr %17, align 8
  store i32 1, ptr %41, align 4
  %184 = load ptr, ptr %17, align 8
  %185 = load i32, ptr %184, align 4
  %186 = load i32, ptr %20, align 4
  %187 = sdiv i32 %185, %186
  store i32 %187, ptr %42, align 4
  %188 = call noundef nonnull align 4 dereferenceable(4) ptr @_ZSt3maxIiERKT_S2_S2_(ptr noundef nonnull align 4 dereferenceable(4) %41, ptr noundef nonnull align 4 dereferenceable(4) %42)
  %189 = load i32, ptr %188, align 4
  %190 = add nsw i32 %189, 15
  %191 = sdiv i32 %190, 16
  %192 = mul nsw i32 %191, 16
  store i32 %192, ptr %40, align 4
  %193 = call noundef nonnull align 4 dereferenceable(4) ptr @_ZSt3minIiERKT_S2_S2_(ptr noundef nonnull align 4 dereferenceable(4) %183, ptr noundef nonnull align 4 dereferenceable(4) %40)
  %194 = load i32, ptr %193, align 4
  %195 = load ptr, ptr %17, align 8
  store i32 %194, ptr %195, align 4
  br label %196

196:                                              ; preds = %182, %179
  %197 = load i32, ptr %14, align 4
  %198 = icmp sgt i32 %197, 0
  br i1 %198, label %199, label %205

199:                                              ; preds = %196
  %200 = load i32, ptr %14, align 4
  %201 = add nsw i32 %200, 15
  %202 = sdiv i32 %201, 16
  %203 = mul nsw i32 %202, 16
  %204 = load ptr, ptr %17, align 8
  store i32 %203, ptr %204, align 4
  br label %205

205:                                              ; preds = %199, %196
  %206 = load i32, ptr %15, align 4
  %207 = icmp sgt i32 %206, 0
  br i1 %207, label %208, label %214

208:                                              ; preds = %205
  %209 = load i32, ptr %15, align 4
  %210 = add nsw i32 %209, 3
  %211 = sdiv i32 %210, 4
  %212 = mul nsw i32 %211, 4
  %213 = load ptr, ptr %18, align 8
  store i32 %212, ptr %213, align 4
  br label %214

214:                                              ; preds = %208, %205
  %215 = load i32, ptr %16, align 4
  %216 = icmp sgt i32 %215, 0
  br i1 %216, label %217, label %223

217:                                              ; preds = %214
  %218 = load i32, ptr %16, align 4
  %219 = add nsw i32 %218, 15
  %220 = sdiv i32 %219, 16
  %221 = mul nsw i32 %220, 16
  %222 = load ptr, ptr %19, align 8
  store i32 %221, ptr %222, align 4
  br label %223

223:                                              ; preds = %217, %214
  ret void
}