; Function Attrs: mustprogress uwtable
define internal fastcc void @_ZN4ncnnL20get_optimal_tile_mnkEiiiiiiRiS0_S0_i(i32 noundef %0, i32 noundef %1, i32 noundef %2, i32 noundef %3, i32 noundef %4, i32 noundef %5, ptr nocapture noundef nonnull align 4 dereferenceable(4) %6, ptr nocapture noundef nonnull align 4 dereferenceable(4) %7, ptr nocapture noundef nonnull writeonly align 4 dereferenceable(4) %8, i32 noundef %9) unnamed_addr #0 {
  %11 = tail call noundef i32 @_ZN4ncnn25get_cpu_level2_cache_sizeEv()
  %12 = sext i32 %11 to i64
  %13 = icmp eq i32 %9, 0
  br i1 %13, label %14, label %16

14:                                               ; preds = %10
  %15 = tail call noundef i32 @_ZN4ncnn26get_physical_big_cpu_countEv()
  br label %16

16:                                               ; preds = %14, %10
  %.0 = phi i32 [ %15, %14 ], [ %9, %10 ]
  %17 = uitofp i64 %12 to float
  %18 = fmul fast float %17, 0x3FB5555560000000
  %19 = tail call fast noundef float @llvm.sqrt.f32(float %18)
  %20 = fptosi float %19 to i32
  %21 = sdiv i32 %20, 16
  %22 = shl nsw i32 %21, 4
  %.sroa.speculated115 = tail call i32 @llvm.smax.i32(i32 %22, i32 16)
  store i32 %.sroa.speculated115, ptr %6, align 4
  %23 = sdiv i32 %20, 4
  %24 = shl nsw i32 %23, 2
  %.sroa.speculated109 = tail call i32 @llvm.smax.i32(i32 %24, i32 4)
  store i32 %.sroa.speculated109, ptr %7, align 4
  store i32 %.sroa.speculated115, ptr %8, align 4
  %25 = icmp sgt i32 %2, 0
  br i1 %25, label %26, label %44

26:                                               ; preds = %16
  %27 = add nsw i32 %2, -1
  %28 = add nuw i32 %27, %.sroa.speculated115
  %29 = udiv i32 %28, %.sroa.speculated115
  %30 = add nuw i32 %27, %29
  %31 = udiv i32 %30, %29
  %32 = add nuw nsw i32 %31, 15
  %33 = and i32 %32, -16
  %.sroa.speculated99 = tail call i32 @llvm.umin.i32(i32 %33, i32 %.sroa.speculated115)
  store i32 %.sroa.speculated99, ptr %8, align 4
  %34 = icmp eq i32 %29, 1
  br i1 %34, label %35, label %44

35:                                               ; preds = %26
  %36 = fmul fast float %17, 1.250000e-01
  %37 = uitofp nneg i32 %.sroa.speculated99 to float
  %38 = fdiv fast float %36, %37
  %39 = fptosi float %38 to i32
  %40 = sdiv i32 %39, 16
  %41 = shl nsw i32 %40, 4
  %.sroa.speculated93 = tail call i32 @llvm.smax.i32(i32 %41, i32 16)
  store i32 %.sroa.speculated93, ptr %6, align 4
  %42 = sdiv i32 %39, 4
  %43 = shl nsw i32 %42, 2
  %.sroa.speculated87 = tail call i32 @llvm.smax.i32(i32 %43, i32 4)
  store i32 %.sroa.speculated87, ptr %7, align 4
  br label %44

44:                                               ; preds = %26, %35, %16
  %45 = tail call noundef i32 @_ZN4ncnn22get_physical_cpu_countEv()
  %.sroa.speculated83 = tail call i32 @llvm.smin.i32(i32 %45, i32 %.0)
  %46 = load i32, ptr %6, align 4
  %47 = mul nsw i32 %46, %.sroa.speculated83
  %48 = icmp sgt i32 %0, 0
  br i1 %48, label %49, label %58

49:                                               ; preds = %44
  %50 = add nsw i32 %0, -1
  %51 = add i32 %50, %47
  %52 = sdiv i32 %51, %47
  %53 = add i32 %50, %52
  %54 = sdiv i32 %53, %52
  %55 = add nsw i32 %54, 15
  %56 = sdiv i32 %55, 16
  %57 = shl nsw i32 %56, 4
  %.sroa.speculated79 = tail call i32 @llvm.smin.i32(i32 %57, i32 %47)
  br label %58

58:                                               ; preds = %49, %44
  %storemerge = phi i32 [ %.sroa.speculated79, %49 ], [ %47, %44 ]
  store i32 %storemerge, ptr %6, align 4
  %59 = icmp sgt i32 %1, 0
  br i1 %59, label %60, label %70

60:                                               ; preds = %58
  %61 = load i32, ptr %7, align 4
  %62 = add nsw i32 %1, -1
  %63 = add i32 %62, %61
  %64 = sdiv i32 %63, %61
  %65 = add i32 %62, %64
  %66 = sdiv i32 %65, %64
  %67 = add nsw i32 %66, 3
  %68 = sdiv i32 %67, 4
  %69 = shl nsw i32 %68, 2
  %.sroa.speculated75 = tail call i32 @llvm.smin.i32(i32 %69, i32 %61)
  store i32 %.sroa.speculated75, ptr %7, align 4
  br label %70

70:                                               ; preds = %60, %58
  %71 = icmp sgt i32 %.0, 1
  br i1 %71, label %72, label %77

72:                                               ; preds = %70
  %73 = load i32, ptr %6, align 4
  %74 = sdiv i32 %73, %.0
  %.sroa.speculated = tail call i32 @llvm.smax.i32(i32 %74, i32 1)
  %75 = add nuw nsw i32 %.sroa.speculated, 15
  %76 = and i32 %75, 2147483632
  %.sroa.speculated71 = tail call i32 @llvm.smin.i32(i32 %76, i32 %73)
  store i32 %.sroa.speculated71, ptr %6, align 4
  br label %77

77:                                               ; preds = %72, %70
  %78 = icmp sgt i32 %3, 0
  br i1 %78, label %79, label %82

79:                                               ; preds = %77
  %80 = add nuw nsw i32 %3, 15
  %81 = and i32 %80, 2147483632
  store i32 %81, ptr %6, align 4
  br label %82

82:                                               ; preds = %79, %77
  %83 = icmp sgt i32 %4, 0
  br i1 %83, label %84, label %87

84:                                               ; preds = %82
  %85 = add nuw nsw i32 %4, 3
  %86 = and i32 %85, 2147483644
  store i32 %86, ptr %7, align 4
  br label %87

87:                                               ; preds = %84, %82
  %88 = icmp sgt i32 %5, 0
  br i1 %88, label %89, label %92

89:                                               ; preds = %87
  %90 = add nuw nsw i32 %5, 15
  %91 = and i32 %90, 2147483632
  store i32 %91, ptr %8, align 4
  br label %92

92:                                               ; preds = %89, %87
  ret void
}